; Function Attrs: mustprogress uwtable
define noundef i64 @ggml_backend_get_alignment(ptr noundef readonly captures(none) %0) local_unnamed_addr #0 {
  %2 = getelementptr inbounds nuw i8, ptr %0, i64 112
  %3 = load ptr, ptr %2, align 8, !tbaa !55
  %4 = getelementptr inbounds nuw i8, ptr %3, i64 48
  %5 = load ptr, ptr %4, align 8, !tbaa !56
  %6 = tail call noundef ptr %5(ptr noundef %3)
  %7 = getelementptr inbounds nuw i8, ptr %6, i64 16
  %8 = load ptr, ptr %7, align 8, !tbaa !22
  %9 = tail call noundef i64 %8(ptr noundef %6)
  ret i64 %9
}